; Function Attrs: nounwind uwtable
define ptr @l___private_Lean_Meta_RecursorInfo_0__Lean_Meta_getNumParams(ptr noundef readonly captures(none) %0, ptr noundef %1, ptr noundef %2) local_unnamed_addr #0 {
  %4 = getelementptr i8, ptr %0, i64 8
  %5 = getelementptr inbounds nuw i8, ptr %0, i64 24
  br label %lean_dec.exit

lean_dec.exit:                                    ; preds = %lean_dec.exit.backedge, %3
  %.018 = phi ptr [ %2, %3 ], [ %.018.be, %lean_dec.exit.backedge ]
  %.val = load i64, ptr %4, align 8, !tbaa !16
  %6 = shl i64 %.val, 1
  %7 = or disjoint i64 %6, 1
  %8 = inttoptr i64 %7 to ptr
  %9 = ptrtoint ptr %.018 to i64
  %10 = and i64 %9, 1
  %.not = icmp eq i64 %10, 0
  br i1 %.not, label %lean_dec.exit24, label %11, !prof !12

11:                                               ; preds = %lean_dec.exit
  %12 = icmp ult ptr %.018, %8
  br i1 %12, label %14, label %55

lean_dec.exit24:                                  ; preds = %lean_dec.exit
  %13 = tail call zeroext i1 @lean_nat_big_lt(ptr noundef %.018, ptr noundef nonnull %8) #6
  br i1 %13, label %14, label %55

14:                                               ; preds = %11, %lean_dec.exit24
  %15 = lshr i64 %9, 1
  %16 = getelementptr inbounds nuw [0 x ptr], ptr %5, i64 0, i64 %15
  %17 = load ptr, ptr %16, align 8, !tbaa !4
  %18 = ptrtoint ptr %17 to i64
  %19 = and i64 %18, 1
  %.not.i.i = icmp eq i64 %19, 0
  br i1 %.not.i.i, label %20, label %lean_array_fget.exit

20:                                               ; preds = %14
  %.val.i.i.i = load i32, ptr %17, align 4, !tbaa !8
  %21 = icmp sgt i32 %.val.i.i.i, 0
  br i1 %21, label %22, label %24, !prof !11

22:                                               ; preds = %20
  %23 = add nuw i32 %.val.i.i.i, 1
  store i32 %23, ptr %17, align 4, !tbaa !8
  br label %27

24:                                               ; preds = %20
  %.not.i.i.i = icmp eq i32 %.val.i.i.i, 0
  br i1 %.not.i.i.i, label %27, label %25

25:                                               ; preds = %24
  tail call void @lean_inc_ref_cold(ptr noundef nonnull %17) #6
  br label %27

lean_array_fget.exit:                             ; preds = %14
  %26 = tail call zeroext i8 @lean_expr_eqv(ptr noundef %1, ptr noundef %17) #6
  br label %lean_dec.exit23

27:                                               ; preds = %22, %24, %25
  %28 = tail call zeroext i8 @lean_expr_eqv(ptr noundef %1, ptr noundef nonnull %17) #6
  %29 = load i32, ptr %17, align 4, !tbaa !8
  %30 = icmp sgt i32 %29, 1
  br i1 %30, label %31, label %33, !prof !11

31:                                               ; preds = %27
  %32 = add nsw i32 %29, -1
  store i32 %32, ptr %17, align 4, !tbaa !8
  br label %lean_dec.exit23

33:                                               ; preds = %27
  %.not.i25 = icmp eq i32 %29, 0
  br i1 %.not.i25, label %lean_dec.exit23, label %34

34:                                               ; preds = %33
  tail call void @lean_dec_ref_cold(ptr noundef nonnull %17) #6
  br label %lean_dec.exit23

lean_dec.exit23:                                  ; preds = %34, %33, %31, %lean_array_fget.exit
  %35 = phi i8 [ %26, %lean_array_fget.exit ], [ %28, %31 ], [ %28, %33 ], [ %28, %34 ]
  %36 = icmp eq i8 %35, 0
  br i1 %36, label %37, label %55

37:                                               ; preds = %lean_dec.exit23
  br i1 %.not, label %47, label %38, !prof !12

38:                                               ; preds = %37
  %39 = add nuw i64 %15, 1
  %40 = icmp sgt i64 %39, -1
  br i1 %40, label %41, label %45, !prof !11

41:                                               ; preds = %38
  %42 = shl nuw i64 %39, 1
  %43 = or disjoint i64 %42, 1
  %44 = inttoptr i64 %43 to ptr
  br label %lean_dec.exit.backedge

lean_dec.exit.backedge:                           ; preds = %41, %45, %51, %53, %54
  %.018.be = phi ptr [ %48, %51 ], [ %48, %53 ], [ %48, %54 ], [ %46, %45 ], [ %44, %41 ]
  br label %lean_dec.exit

45:                                               ; preds = %38
  %46 = tail call ptr @lean_big_usize_to_nat(i64 noundef range(i64 0, -1) %39) #6
  br label %lean_dec.exit.backedge

47:                                               ; preds = %37
  %48 = tail call ptr @lean_nat_big_add(ptr noundef %.018, ptr noundef nonnull inttoptr (i64 3 to ptr)) #6
  %49 = load i32, ptr %.018, align 4, !tbaa !8
  %50 = icmp sgt i32 %49, 1
  br i1 %50, label %51, label %53, !prof !11

51:                                               ; preds = %47
  %52 = add nsw i32 %49, -1
  store i32 %52, ptr %.018, align 4, !tbaa !8
  br label %lean_dec.exit.backedge

53:                                               ; preds = %47
  %.not.i27 = icmp eq i32 %49, 0
  br i1 %.not.i27, label %lean_dec.exit.backedge, label %54

54:                                               ; preds = %53
  tail call void @lean_dec_ref_cold(ptr noundef nonnull %.018) #6
  br label %lean_dec.exit.backedge

55:                                               ; preds = %11, %lean_dec.exit24, %lean_dec.exit23
  ret ptr %.018
}